target datalayout = "e-m:e-p270:32:32-p271:32:32-p272:64:64-i64:64-i128:128-f80:128-n8:16:32:64-S128"
target triple = "x86_64-pc-linux-gnu"

; Function Attrs: nounwind uwtable
define dso_local i64 @bit_noc(ptr noundef %0, i32 noundef %1, i32 noundef %2) #0 {
  %4 = alloca i64, align 8
  %5 = alloca ptr, align 8
  %6 = alloca i32, align 4
  %7 = alloca i32, align 4
  %8 = alloca i64, align 8
  %9 = alloca i64, align 8
  %10 = alloca i32, align 4
  %11 = alloca i32, align 4
  store ptr %0, ptr %5, align 8
  store i32 %1, ptr %6, align 4
  store i32 %2, ptr %7, align 4
  call void @llvm.lifetime.start.p0(i64 8, ptr %8) #12
  store i64 -1, ptr %8, align 8
  call void @llvm.lifetime.start.p0(i64 8, ptr %9) #12
  call void @llvm.lifetime.start.p0(i64 4, ptr %10) #12
  store i32 0, ptr %10, align 4
  br label %12

12:                                               ; preds = %3
  br label %13

13:                                               ; preds = %12
  br label %14

14:                                               ; preds = %13
  %15 = load i32, ptr %7, align 4
  %16 = load i32, ptr %6, align 4
  %17 = add nsw i32 %15, %16
  %18 = sext i32 %17 to i64
  %19 = load ptr, ptr %5, align 8
  %20 = getelementptr inbounds i64, ptr %19, i64 1
  %21 = load i64, ptr %20, align 8
  %22 = icmp sge i64 %18, %21
  br i1 %22, label %23, label %28

23:                                               ; preds = %14
  %24 = load ptr, ptr %5, align 8
  %25 = getelementptr inbounds i64, ptr %24, i64 1
  %26 = load i64, ptr %25, align 8
  %27 = trunc i64 %26 to i32
  store i32 %27, ptr %7, align 4
  br label %28

28:                                               ; preds = %23, %14
  %29 = load i32, ptr %7, align 4
  %30 = sext i32 %29 to i64
  store i64 %30, ptr %9, align 8
  br label %31

31:                                               ; preds = %67, %28
  %32 = load i64, ptr %9, align 8
  %33 = load ptr, ptr %5, align 8
  %34 = getelementptr inbounds i64, ptr %33, i64 1
  %35 = load i64, ptr %34, align 8
  %36 = icmp slt i64 %32, %35
  br i1 %36, label %37, label %70

37:                                               ; preds = %31
  %38 = load ptr, ptr %5, align 8
  %39 = load i64, ptr %9, align 8
  %40 = ashr i64 %39, 6
  %41 = add nsw i64 %40, 2
  %42 = getelementptr inbounds i64, ptr %38, i64 %41
  %43 = load i64, ptr %42, align 8
  %44 = load i64, ptr %9, align 8
  %45 = and i64 %44, 63
  %46 = shl i64 1, %45
  %47 = and i64 %43, %46
  %48 = icmp ne i64 %47, 0
  br i1 %48, label %49, label %50

49:                                               ; preds = %37
  br i1 true, label %51, label %52

50:                                               ; preds = %37
  br i1 false, label %51, label %52

51:                                               ; preds = %50, %49
  store i32 0, ptr %10, align 4
  br label %66

52:                                               ; preds = %50, %49
  %53 = load i32, ptr %10, align 4
  %54 = add nsw i32 %53, 1
  store i32 %54, ptr %10, align 4
  %55 = load i32, ptr %10, align 4
  %56 = load i32, ptr %6, align 4
  %57 = icmp sge i32 %55, %56
  br i1 %57, label %58, label %65

58:                                               ; preds = %52
  %59 = load i64, ptr %9, align 8
  %60 = load i32, ptr %10, align 4
  %61 = sub nsw i32 %60, 1
  %62 = sext i32 %61 to i64
  %63 = sub nsw i64 %59, %62
  store i64 %63, ptr %8, align 8
  %64 = load i64, ptr %8, align 8
  store i64 %64, ptr %4, align 8
  store i32 1, ptr %11, align 4
  br label %117

65:                                               ; preds = %52
  br label %66

66:                                               ; preds = %65, %51
  br label %67

67:                                               ; preds = %66
  %68 = load i64, ptr %9, align 8
  %69 = add nsw i64 %68, 1
  store i64 %69, ptr %9, align 8
  br label %31, !llvm.loop !38

70:                                               ; preds = %31
  store i32 0, ptr %10, align 4
  store i64 0, ptr %9, align 8
  br label %71

71:                                               ; preds = %113, %70
  %72 = load i64, ptr %9, align 8
  %73 = load ptr, ptr %5, align 8
  %74 = getelementptr inbounds i64, ptr %73, i64 1
  %75 = load i64, ptr %74, align 8
  %76 = icmp slt i64 %72, %75
  br i1 %76, label %77, label %116

77:                                               ; preds = %71
  %78 = load ptr, ptr %5, align 8
  %79 = load i64, ptr %9, align 8
  %80 = ashr i64 %79, 6
  %81 = add nsw i64 %80, 2
  %82 = getelementptr inbounds i64, ptr %78, i64 %81
  %83 = load i64, ptr %82, align 8
  %84 = load i64, ptr %9, align 8
  %85 = and i64 %84, 63
  %86 = shl i64 1, %85
  %87 = and i64 %83, %86
  %88 = icmp ne i64 %87, 0
  br i1 %88, label %89, label %90

89:                                               ; preds = %77
  br i1 true, label %91, label %98

90:                                               ; preds = %77
  br i1 false, label %91, label %98

91:                                               ; preds = %90, %89
  %92 = load i64, ptr %9, align 8
  %93 = load i32, ptr %7, align 4
  %94 = sext i32 %93 to i64
  %95 = icmp sge i64 %92, %94
  br i1 %95, label %96, label %97

96:                                               ; preds = %91
  br label %116

97:                                               ; preds = %91
  store i32 0, ptr %10, align 4
  br label %112

98:                                               ; preds = %90, %89
  %99 = load i32, ptr %10, align 4
  %100 = add nsw i32 %99, 1
  store i32 %100, ptr %10, align 4
  %101 = load i32, ptr %10, align 4
  %102 = load i32, ptr %6, align 4
  %103 = icmp sge i32 %101, %102
  br i1 %103, label %104, label %111

104:                                              ; preds = %98
  %105 = load i64, ptr %9, align 8
  %106 = load i32, ptr %10, align 4
  %107 = sub nsw i32 %106, 1
  %108 = sext i32 %107 to i64
  %109 = sub nsw i64 %105, %108
  store i64 %109, ptr %8, align 8
  %110 = load i64, ptr %8, align 8
  store i64 %110, ptr %4, align 8
  store i32 1, ptr %11, align 4
  br label %117

111:                                              ; preds = %98
  br label %112

112:                                              ; preds = %111, %97
  br label %113

113:                                              ; preds = %112
  %114 = load i64, ptr %9, align 8
  %115 = add nsw i64 %114, 1
  store i64 %115, ptr %9, align 8
  br label %71, !llvm.loop !39

116:                                              ; preds = %96, %71
  store i64 -1, ptr %4, align 8
  store i32 1, ptr %11, align 4
  br label %117

117:                                              ; preds = %116, %104, %58
  call void @llvm.lifetime.end.p0(i64 4, ptr %10) #12
  call void @llvm.lifetime.end.p0(i64 8, ptr %9) #12
  call void @llvm.lifetime.end.p0(i64 8, ptr %8) #12
  %118 = load i64, ptr %4, align 8
  ret i64 %118
}