; Function Attrs: nofree norecurse nosync nounwind memory(argmem: read) uwtable
define dso_local i64 @bit_noc(ptr noundef readonly captures(none) %0, i32 noundef %1, i32 noundef %2) #3 {
  %4 = add nsw i32 %2, %1
  %5 = sext i32 %4 to i64
  %6 = getelementptr inbounds nuw i8, ptr %0, i64 8
  %7 = load i64, ptr %6, align 8
  %.not = icmp sgt i64 %7, %5
  %8 = trunc i64 %7 to i32
  %spec.select = select i1 %.not, i32 %2, i32 %8
  %9 = sext i32 %spec.select to i64
  %invariant.gep = getelementptr i8, ptr %0, i64 16
  %10 = icmp sgt i64 %7, %9
  br i1 %10, label %.lr.ph, label %.preheader

.preheader:                                       ; preds = %22, %3
  %11 = icmp sgt i64 %7, 0
  br i1 %11, label %.lr.ph53, label %.loopexit

.lr.ph:                                           ; preds = %3, %22
  %.048 = phi i32 [ %.1, %22 ], [ 0, %3 ]
  %.03147 = phi i64 [ %23, %22 ], [ %9, %3 ]
  %12 = ashr i64 %.03147, 6
  %gep = getelementptr i64, ptr %invariant.gep, i64 %12
  %13 = load i64, ptr %gep, align 8
  %14 = and i64 %.03147, 63
  %15 = shl nuw i64 1, %14
  %16 = and i64 %13, %15
  %.not41 = icmp eq i64 %16, 0
  br i1 %.not41, label %17, label %22

17:                                               ; preds = %.lr.ph
  %18 = add nsw i32 %.048, 1
  %.not42 = icmp slt i32 %18, %1
  br i1 %.not42, label %22, label %19

19:                                               ; preds = %17
  %20 = sext i32 %.048 to i64
  %21 = sub nsw i64 %.03147, %20
  br label %.loopexit

22:                                               ; preds = %.lr.ph, %17
  %.1 = phi i32 [ %18, %17 ], [ 0, %.lr.ph ]
  %23 = add i64 %.03147, 1
  %exitcond.not = icmp eq i64 %23, %7
  br i1 %exitcond.not, label %.preheader, label %.lr.ph, !llvm.loop !40

.lr.ph53:                                         ; preds = %.preheader, %35
  %.252 = phi i32 [ %.3, %35 ], [ 0, %.preheader ]
  %.13251 = phi i64 [ %36, %35 ], [ 0, %.preheader ]
  %24 = lshr i64 %.13251, 6
  %gep50 = getelementptr inbounds nuw i64, ptr %invariant.gep, i64 %24
  %25 = load i64, ptr %gep50, align 8
  %26 = and i64 %.13251, 63
  %27 = shl nuw i64 1, %26
  %28 = and i64 %25, %27
  %.not38 = icmp eq i64 %28, 0
  br i1 %.not38, label %30, label %29

29:                                               ; preds = %.lr.ph53
  %.not40 = icmp slt i64 %.13251, %9
  br i1 %.not40, label %35, label %.loopexit

30:                                               ; preds = %.lr.ph53
  %31 = add nsw i32 %.252, 1
  %.not39 = icmp slt i32 %31, %1
  br i1 %.not39, label %35, label %32

32:                                               ; preds = %30
  %33 = sext i32 %.252 to i64
  %34 = sub nsw i64 %.13251, %33
  br label %.loopexit

35:                                               ; preds = %29, %30
  %.3 = phi i32 [ %31, %30 ], [ 0, %29 ]
  %36 = add nuw nsw i64 %.13251, 1
  %exitcond59.not = icmp eq i64 %36, %7
  br i1 %exitcond59.not, label %.loopexit, label %.lr.ph53, !llvm.loop !41

.loopexit:                                        ; preds = %29, %35, %.preheader, %32, %19
  %.034 = phi i64 [ %21, %19 ], [ %34, %32 ], [ -1, %.preheader ], [ -1, %35 ], [ -1, %29 ]
  ret i64 %.034
}